target datalayout = "e-m:e-p270:32:32-p271:32:32-p272:64:64-i64:64-i128:128-f80:128-n8:16:32:64-S128"
target triple = "x86_64-unknown-linux-gnu"

%struct.MACAddr = type { [6 x i8] }
%struct.of_dpa_flow_key = type { i32, i32, i32, %struct.anon, %struct.anon.0, %union.anon, i32 }
%struct.anon = type { i16, %struct.MACAddr, %struct.MACAddr, i16 }
%struct.anon.0 = type { i8, i8, i8, i8 }
%union.anon = type { %struct.anon.6 }
%struct.anon.6 = type { %struct.anon.7, i32, %struct.anon.9, %struct.anon.10 }
%struct.anon.7 = type { %struct.ipv6_addr, %struct.ipv6_addr }
%struct.ipv6_addr = type { %union.anon.8 }
%union.anon.8 = type { [4 x i32] }
%struct.anon.9 = type { i16, i16, i16 }
%struct.anon.10 = type { %struct.ipv6_addr, %struct.MACAddr, %struct.MACAddr }
%struct.of_dpa_flow_action = type { i32, %struct.anon.11, %struct.anon.12 }
%struct.anon.11 = type { i32, i32, i16 }
%struct.anon.12 = type { i16, i32, i8, i16 }
%struct.of_dpa_flow_context = type { i32, i32, ptr, i32, %struct.eth_header, %struct.vlan_header, %struct.vlan_header, ptr, %struct.of_dpa_flow_pkt_fields, %struct.of_dpa_flow_action }
%struct.eth_header = type { [6 x i8], [6 x i8], i16 }
%struct.vlan_header = type { i16, i16 }
%struct.of_dpa_flow_pkt_fields = type { i32, ptr, ptr, ptr, ptr, ptr, ptr, ptr }
%struct.of_dpa_flow_match = type { %struct.of_dpa_flow_key, ptr }

; Function Attrs: nounwind sspstrong uwtable
define internal void @of_dpa_vlan_build_match(ptr noundef %fc, ptr noundef %match) #0 {
entry:
  %fc.addr = alloca ptr, align 8
  %match.addr = alloca ptr, align 8
  store ptr %fc, ptr %fc.addr, align 8
  store ptr %match, ptr %match.addr, align 8
  %0 = load ptr, ptr %match.addr, align 8
  %value = getelementptr inbounds %struct.of_dpa_flow_match, ptr %0, i32 0, i32 0
  %tbl_id = getelementptr inbounds %struct.of_dpa_flow_key, ptr %value, i32 0, i32 2
  store i32 10, ptr %tbl_id, align 8
  %1 = load ptr, ptr %fc.addr, align 8
  %in_pport = getelementptr inbounds %struct.of_dpa_flow_context, ptr %1, i32 0, i32 0
  %2 = load i32, ptr %in_pport, align 8
  %3 = load ptr, ptr %match.addr, align 8
  %value1 = getelementptr inbounds %struct.of_dpa_flow_match, ptr %3, i32 0, i32 0
  %in_pport2 = getelementptr inbounds %struct.of_dpa_flow_key, ptr %value1, i32 0, i32 0
  store i32 %2, ptr %in_pport2, align 8
  %4 = load ptr, ptr %fc.addr, align 8
  %fields = getelementptr inbounds %struct.of_dpa_flow_context, ptr %4, i32 0, i32 8
  %vlanhdr = getelementptr inbounds %struct.of_dpa_flow_pkt_fields, ptr %fields, i32 0, i32 3
  %5 = load ptr, ptr %vlanhdr, align 8
  %tobool = icmp ne ptr %5, null
  br i1 %tobool, label %if.then, label %if.end

if.then:                                          ; preds = %entry
  %6 = load ptr, ptr %fc.addr, align 8
  %fields3 = getelementptr inbounds %struct.of_dpa_flow_context, ptr %6, i32 0, i32 8
  %vlanhdr4 = getelementptr inbounds %struct.of_dpa_flow_pkt_fields, ptr %fields3, i32 0, i32 3
  %7 = load ptr, ptr %vlanhdr4, align 8
  %h_tci = getelementptr inbounds %struct.vlan_header, ptr %7, i32 0, i32 0
  %8 = load i16, ptr %h_tci, align 2
  %9 = load ptr, ptr %match.addr, align 8
  %value5 = getelementptr inbounds %struct.of_dpa_flow_match, ptr %9, i32 0, i32 0
  %eth = getelementptr inbounds %struct.of_dpa_flow_key, ptr %value5, i32 0, i32 3
  %vlan_id = getelementptr inbounds %struct.anon, ptr %eth, i32 0, i32 0
  store i16 %8, ptr %vlan_id, align 4
  br label %if.end

if.end:                                           ; preds = %if.then, %entry
  %10 = load ptr, ptr %match.addr, align 8
  %value6 = getelementptr inbounds %struct.of_dpa_flow_match, ptr %10, i32 0, i32 0
  %width = getelementptr inbounds %struct.of_dpa_flow_key, ptr %value6, i32 0, i32 6
  store i32 2, ptr %width, align 8
  ret void
}