; Function Attrs: mustprogress nofree norecurse nosync nounwind sspstrong willreturn memory(read, argmem: readwrite, inaccessiblemem: none) uwtable
define internal void @of_dpa_vlan_build_match(ptr noundef readonly captures(none) %fc, ptr noundef writeonly captures(none) initializes((0, 4), (8, 12), (104, 108)) %match) #11 {
entry:
  %tbl_id = getelementptr inbounds nuw i8, ptr %match, i64 8
  store i32 10, ptr %tbl_id, align 8
  %0 = load i32, ptr %fc, align 8
  store i32 %0, ptr %match, align 8
  %vlanhdr = getelementptr inbounds nuw i8, ptr %fc, i64 80
  %1 = load ptr, ptr %vlanhdr, align 8
  %tobool.not = icmp eq ptr %1, null
  br i1 %tobool.not, label %if.end, label %if.then

if.then:                                          ; preds = %entry
  %2 = load i16, ptr %1, align 2
  %eth = getelementptr inbounds nuw i8, ptr %match, i64 12
  store i16 %2, ptr %eth, align 4
  br label %if.end

if.end:                                           ; preds = %if.then, %entry
  %width = getelementptr inbounds nuw i8, ptr %match, i64 104
  store i32 2, ptr %width, align 8
  ret void
}